Certificate:
    Data:
        Version: 3 (0x2)
        Serial Number: 268435673 (0x100000d9)
        Signature Algorithm: sha256WithRSAEncryption
        Issuer: C=DE, ST=Hessen, O=privacyidea, CN=CA001
        Validity
            Not Before: Aug  5 15:00:49 2020 GMT
            Not After : Aug  5 15:00:49 2021 GMT
        Subject: CN=selfservice,CN=user,O=realm1/emailAddress=meine
        Subject Public Key Info:
            Public Key Algorithm: rsaEncryption
                RSA Public-Key: (2048 bit)
                Modulus:
                    00:cf:3c:d4:33:0e:12:c4:e6:da:cd:b6:56:a1:1c:
                    26:bb:26:1c:8a:4a:73:a8:58:8a:b6:1e:b3:8b:99:
                    d2:1d:07:c2:92:89:79:c0:69:d8:c8:df:28:61:98:
                    1e:b3:fe:ae:2b:bd:78:a9:f7:6e:47:dc:a3:a0:16:
                    8c:85:02:c1:4e:92:fd:72:6e:f0:c8:03:29:9b:b8:
                    00:6e:c0:83:95:c8:34:20:36:9c:b3:e5:e4:e6:76:
                    73:a3:1a:ad:40:96:e0:53:54:00:ec:76:79:9a:c6:
                    0d:7e:b6:bd:29:ec:83:f3:cb:89:a4:cb:6c:00:ba:
                    0c:c5:78:0f:ff:69:b8:94:f4:04:70:43:3f:d8:9e:
                    d7:a7:fb:5d:ce:75:8e:da:e7:c4:07:b1:9d:de:6f:
                    88:4b:b6:4d:9a:cf:f9:bc:fa:9f:cd:32:6d:f6:3a:
                    0b:0d:23:42:78:ec:97:42:bf:0e:4d:60:56:e1:d3:
                    02:f2:19:cb:84:57:90:e5:70:a1:a2:83:35:86:e2:
                    da:86:9f:f9:8a:c4:79:b3:52:28:da:cb:bb:34:ca:
                    d3:da:91:4a:cf:8d:76:a2:b2:6b:9b:f9:96:fd:09:
                    2a:da:11:23:4d:f0:cb:d6:b2:b1:0e:12:6c:9a:19:
                    65:98:87:ca:e4:ee:24:ce:44:ac:90:8f:9d:1b:c5:
                    2a:9d
                Exponent: 65537 (0x10001)
        X509v3 extensions:
            X509v3 Key Usage: 
                Digital Signature, Key Encipherment
            X509v3 Basic Constraints: 
                CA:FALSE
            Netscape Cert Type: 
                SSL Server
            Netscape Comment: 
                OpenSSL Generated Server Certificate
            X509v3 Subject Key Identifier: 
                4D:07:90:AD:FF:1D:0D:E7:1A:DD:D6:2E:FA:BA:34:CB:AA:1F:24:C6
            X509v3 Authority Key Identifier: 
                keyid:F4:A7:C0:CC:91:46:AF:64:F3:91:F2:27:F8:C8:B2:6F:8A:87:32:73
                DirName:/C=DE/ST=Hessen/O=privacyidea/CN=CA001
                serial:FB:C8:EB:AC:83:CD:12:07

            X509v3 Extended Key Usage: 
                TLS Web Server Authentication
    Signature Algorithm: sha256WithRSAEncryption
         bf:8c:9c:bc:59:a4:33:64:94:e4:86:56:df:40:90:be:10:5a:
         4e:2c:db:6b:5f:3c:33:01:6c:f5:21:63:aa:3c:18:46:24:e4:
         79:f4:cf:85:34:13:3a:b7:4b:1c:85:63:c3:5f:6e:e7:fd:72:
         09:5e:af:68:30:e8:9e:66:07:8e:08:5b:94:73:3f:e9:01:3d:
         9c:13:25:62:dc:ed:7d:2c:a9:c7:4a:ce:ff:99:ff:25:2f:8f:
         60:7c:c1:00:86:92:32:4a:b7:1d:1a:1e:91:11:55:cc:5d:84:
         c3:5d:a3:fe:b5:c1:4a:fa:0e:e7:e1:c5:1a:1d:61:8b:63:b5:
         5f:97:0d:08:9b:6c:2f:42:fb:1e:f1:5b:61:40:ca:38:68:71:
         87:35:a2:7a:20:84:24:34:2c:7b:a6:29:e5:4c:2e:b8:80:4c:
         d9:10:5d:45:cd:16:34:7b:f1:29:47:81:f1:4c:6a:fa:7d:ca:
         0b:ef:a4:db:03:dc:fc:ed:da:75:af:55:68:89:97:fe:f4:af:
         49:3c:5d:bf:fa:54:fa:72:bd:e2:d2:8e:92:1a:8b:d6:23:40:
         e7:78:7e:b7:3e:08:93:36:8d:ab:0f:77:8c:e3:f7:bb:b0:f7:
         84:3d:97:55:6e:6e:ee:72:eb:c2:71:0b:b7:1a:ca:fb:ca:39:
         cd:37:72:a1
-----BEGIN CERTIFICATE-----
MIIEDzCCAvegAwIBAgIEEAAA2TANBgkqhkiG9w0BAQsFADBEMQswCQYDVQQGEwJE
RTEPMA0GA1UECAwGSGVzc2VuMRQwEgYDVQQKDAtwcml2YWN5aWRlYTEOMAwGA1UE
AwwFQ0EwMDEwHhcNMjAwODA1MTUwMDQ5WhcNMjEwODA1MTUwMDQ5WjA9MSUwIwYD
VQQDDBxzZWxmc2VydmljZSxDTj11c2VyLE89cmVhbG0xMRQwEgYJKoZIhvcNAQkB
FgVtZWluZTCCASIwDQYJKoZIhvcNAQEBBQADggEPADCCAQoCggEBAM881DMOEsTm
2s22VqEcJrsmHIpKc6hYirYes4uZ0h0HwpKJecBp2MjfKGGYHrP+riu9eKn3bkfc
o6AWjIUCwU6S/XJu8MgDKZu4AG7Ag5XINCA2nLPl5OZ2c6MarUCW4FNUAOx2eZrG
DX62vSnsg/PLiaTLbAC6DMV4D/9puJT0BHBDP9ie16f7Xc51jtrnxAexnd5viEu2
TZrP+bz6n80ybfY6Cw0jQnjsl0K/Dk1gVuHTAvIZy4RXkOVwoaKDNYbi2oaf+YrE
ebNSKNrLuzTK09qRSs+NdqKya5v5lv0JKtoRI03wy9aysQ4SbJoZZZiHyuTuJM5E
rJCPnRvFKp0CAwEAAaOCAQ4wggEKMAsGA1UdDwQEAwIFoDAJBgNVHRMEAjAAMBEG
CWCGSAGG+EIBAQQEAwIGQDAzBglghkgBhvhCAQ0EJhYkT3BlblNTTCBHZW5lcmF0
ZWQgU2VydmVyIENlcnRpZmljYXRlMB0GA1UdDgQWBBRNB5Ct/x0N5xrd1i76ujTL
qh8kxjB0BgNVHSMEbTBrgBT0p8DMkUavZPOR8if4yLJviocyc6FIpEYwRDELMAkG
A1UEBhMCREUxDzANBgNVBAgMBkhlc3NlbjEUMBIGA1UECgwLcHJpdmFjeWlkZWEx
DjAMBgNVBAMMBUNBMDAxggkA+8jrrIPNEgcwEwYDVR0lBAwwCgYIKwYBBQUHAwEw
DQYJKoZIhvcNAQELBQADggEBAL+MnLxZpDNklOSGVt9AkL4QWk4s22tfPDMBbPUh
Y6o8GEYk5Hn0z4U0Ezq3SxyFY8Nfbuf9cgler2gw6J5mB44IW5RzP+kBPZwTJWLc
7X0sqcdKzv+Z/yUvj2B8wQCGkjJKtx0aHpERVcxdhMNdo/61wUr6DufhxRodYYtj
tV+XDQibbC9C+x7xW2FAyjhocYc1onoghCQ0LHumKeVMLriATNkQXUXNFjR78SlH
gfFMavp9ygvvpNsD3Pzt2nWvVWiJl/70r0k8Xb/6VPpyveLSjpIai9YjQOd4frc+
CJM2jasPd4zj97uw94Q9l1Vubu5y68JxC7cayvvKOc03cqE=
-----END CERTIFICATE-----
