Certificate:
    Data:
        Version: 3 (0x2)
        Serial Number: 268435671 (0x100000d7)
        Signature Algorithm: sha256WithRSAEncryption
        Issuer: C=DE, ST=Hessen, O=privacyidea, CN=CA001
        Validity
            Not Before: Aug  5 14:59:03 2020 GMT
            Not After : Aug  5 14:59:03 2021 GMT
        Subject: C=DE, ST=Hessen, O=privacyidea, CN=requester.localdomain
        Subject Public Key Info:
            Public Key Algorithm: rsaEncryption
                RSA Public-Key: (2048 bit)
                Modulus:
                    00:cd:be:14:4f:fa:ce:01:3f:42:22:1b:1d:9c:af:
                    dd:92:d2:7f:db:6c:b7:3e:39:43:43:6b:13:03:f1:
                    05:f4:07:74:bc:76:69:28:0b:af:19:8e:d7:fc:e3:
                    cd:c6:58:f2:ca:7f:08:6d:53:fc:07:02:44:24:c6:
                    b4:34:4c:8c:04:fe:33:0e:40:e2:20:ba:02:73:5a:
                    f7:f5:4f:63:6e:cc:c6:b6:df:54:1d:37:39:7d:51:
                    36:26:5f:bd:dc:3f:a8:8b:6b:a2:ae:b6:9d:d6:21:
                    e7:df:41:b8:7a:28:2a:68:48:ca:a8:2d:ed:e1:e9:
                    46:5e:5a:72:6d:b4:84:38:87:91:fd:94:11:0b:28:
                    84:c6:c2:2f:2a:fb:01:f9:36:7a:09:75:d1:33:88:
                    3c:73:41:5b:c8:bf:94:89:70:a1:f0:c0:b9:2e:50:
                    53:1e:b1:17:64:69:f4:2d:81:e0:a9:0d:0e:32:e9:
                    ba:55:8a:85:f1:1b:6f:49:79:b4:7f:88:c3:0d:3e:
                    54:88:9b:3d:1f:38:8c:04:f3:ee:6a:63:2b:f5:c6:
                    db:b4:83:aa:c4:78:41:3a:7d:4b:e1:c8:3e:71:ca:
                    1b:61:59:ea:c6:c4:ca:32:5e:c9:e9:bf:12:29:e6:
                    c6:c3:63:fe:a0:55:da:7a:f1:60:98:4d:26:ed:fa:
                    70:2d
                Exponent: 65537 (0x10001)
        X509v3 extensions:
            X509v3 Key Usage: 
                Digital Signature, Key Encipherment
            X509v3 Basic Constraints: 
                CA:FALSE
            Netscape Cert Type: 
                SSL Server
            Netscape Comment: 
                OpenSSL Generated Server Certificate
            X509v3 Subject Key Identifier: 
                53:3F:ED:5D:09:07:B3:65:7B:AB:45:C9:24:5B:09:77:80:0A:96:ED
            X509v3 Authority Key Identifier: 
                keyid:F4:A7:C0:CC:91:46:AF:64:F3:91:F2:27:F8:C8:B2:6F:8A:87:32:73
                DirName:/C=DE/ST=Hessen/O=privacyidea/CN=CA001
                serial:FB:C8:EB:AC:83:CD:12:07

            X509v3 Extended Key Usage: 
                TLS Web Server Authentication
    Signature Algorithm: sha256WithRSAEncryption
         89:c3:4e:e3:ff:e1:6a:39:36:e6:cf:25:94:02:0c:48:50:8d:
         81:b6:42:48:6c:fd:19:fa:a3:1d:de:31:89:28:e8:54:65:f9:
         e7:34:76:dd:fd:f0:54:fd:df:59:af:e8:ec:13:03:f0:ea:c0:
         2a:98:13:fa:00:33:ee:a6:fd:fc:d9:b0:61:7a:5c:a2:61:35:
         01:ee:70:7b:4b:1d:bf:c7:7f:54:06:f0:a6:37:f2:e8:9f:8a:
         d4:8d:a7:61:ad:7d:69:68:5c:45:f7:fe:89:bb:ff:e8:9f:6c:
         00:7c:ee:d8:bb:f6:70:6e:d8:22:99:7e:9b:b8:af:a5:a0:ea:
         7a:b4:c9:cb:c5:16:dd:c9:5a:b6:1b:6c:72:8f:6c:04:ce:d3:
         77:de:e3:4c:4f:5f:ec:92:81:16:29:79:54:ed:00:65:48:2f:
         c0:a8:e9:0b:9c:19:f8:c7:f4:d0:90:d8:87:14:dc:92:1c:18:
         96:85:2b:01:b8:fe:79:8c:67:da:c8:9e:62:3a:c2:22:41:ac:
         d4:cb:38:05:60:b1:7f:d1:b6:73:11:df:47:44:ad:e8:84:f4:
         e2:83:18:e3:76:e5:43:df:85:33:fa:8a:43:18:80:ba:82:b0:
         90:1a:ed:f6:d5:8e:0a:c8:d6:6f:55:c3:5e:96:1a:36:08:a9:
         a2:d2:c1:d2
-----BEGIN CERTIFICATE-----
MIIEJjCCAw6gAwIBAgIEEAAA1zANBgkqhkiG9w0BAQsFADBEMQswCQYDVQQGEwJE
RTEPMA0GA1UECAwGSGVzc2VuMRQwEgYDVQQKDAtwcml2YWN5aWRlYTEOMAwGA1UE
AwwFQ0EwMDEwHhcNMjAwODA1MTQ1OTAzWhcNMjEwODA1MTQ1OTAzWjBUMQswCQYD
VQQGEwJERTEPMA0GA1UECAwGSGVzc2VuMRQwEgYDVQQKDAtwcml2YWN5aWRlYTEe
MBwGA1UEAwwVcmVxdWVzdGVyLmxvY2FsZG9tYWluMIIBIjANBgkqhkiG9w0BAQEF
AAOCAQ8AMIIBCgKCAQEAzb4UT/rOAT9CIhsdnK/dktJ/22y3PjlDQ2sTA/EF9Ad0
vHZpKAuvGY7X/OPNxljyyn8IbVP8BwJEJMa0NEyMBP4zDkDiILoCc1r39U9jbszG
tt9UHTc5fVE2Jl+93D+oi2uirrad1iHn30G4eigqaEjKqC3t4elGXlpybbSEOIeR
/ZQRCyiExsIvKvsB+TZ6CXXRM4g8c0FbyL+UiXCh8MC5LlBTHrEXZGn0LYHgqQ0O
Mum6VYqF8RtvSXm0f4jDDT5UiJs9HziMBPPuamMr9cbbtIOqxHhBOn1L4cg+ccob
YVnqxsTKMl7J6b8SKebGw2P+oFXaevFgmE0m7fpwLQIDAQABo4IBDjCCAQowCwYD
VR0PBAQDAgWgMAkGA1UdEwQCMAAwEQYJYIZIAYb4QgEBBAQDAgZAMDMGCWCGSAGG
+EIBDQQmFiRPcGVuU1NMIEdlbmVyYXRlZCBTZXJ2ZXIgQ2VydGlmaWNhdGUwHQYD
VR0OBBYEFFM/7V0JB7Nle6tFySRbCXeACpbtMHQGA1UdIwRtMGuAFPSnwMyRRq9k
85HyJ/jIsm+KhzJzoUikRjBEMQswCQYDVQQGEwJERTEPMA0GA1UECAwGSGVzc2Vu
MRQwEgYDVQQKDAtwcml2YWN5aWRlYTEOMAwGA1UEAwwFQ0EwMDGCCQD7yOusg80S
BzATBgNVHSUEDDAKBggrBgEFBQcDATANBgkqhkiG9w0BAQsFAAOCAQEAicNO4//h
ajk25s8llAIMSFCNgbZCSGz9GfqjHd4xiSjoVGX55zR23f3wVP3fWa/o7BMD8OrA
KpgT+gAz7qb9/NmwYXpcomE1Ae5we0sdv8d/VAbwpjfy6J+K1I2nYa19aWhcRff+
ibv/6J9sAHzu2Lv2cG7YIpl+m7ivpaDqerTJy8UW3clathtsco9sBM7Td97jTE9f
7JKBFil5VO0AZUgvwKjpC5wZ+Mf00JDYhxTckhwYloUrAbj+eYxn2sieYjrCIkGs
1Ms4BWCxf9G2cxHfR0St6IT04oMY43blQ9+FM/qKQxiAuoKwkBrt9tWOCsjWb1XD
XpYaNgipotLB0g==
-----END CERTIFICATE-----
