Certificate:
    Data:
        Version: 3 (0x2)
        Serial Number: 268435672 (0x100000d8)
        Signature Algorithm: sha256WithRSAEncryption
        Issuer: C=DE, ST=Hessen, O=privacyidea, CN=CA001
        Validity
            Not Before: Aug  5 14:59:03 2020 GMT
            Not After : Aug  5 14:59:03 2021 GMT
        Subject: OU=realm1, CN=cornelius/emailAddress=user@localhost.localdomain
        Subject Public Key Info:
            Public Key Algorithm: rsaEncryption
                RSA Public-Key: (2048 bit)
                Modulus:
                    00:bb:b5:0c:b3:1d:7a:1d:c1:60:84:18:b0:e6:9f:
                    92:04:08:dd:49:cb:86:b1:92:7f:49:4a:ca:42:bc:
                    cc:1d:e8:35:7d:c0:df:09:ea:1f:83:a2:45:7f:95:
                    73:9e:e8:b2:e0:d9:37:98:05:43:b0:02:e7:aa:35:
                    aa:fe:89:fd:42:42:9a:18:d3:93:39:a1:55:6f:3b:
                    1d:8a:88:30:3e:4c:54:75:97:67:a0:9b:7b:fc:52:
                    08:c2:47:65:e5:10:ee:54:d6:ed:1c:94:ae:00:24:
                    f5:3a:7d:16:1f:6d:68:53:f1:c1:fa:d0:d1:f5:f0:
                    2e:76:f3:ed:d2:c8:95:81:4b:49:93:3a:49:74:e5:
                    d2:60:80:f4:21:da:b8:bf:41:0a:29:b3:cb:8f:c4:
                    21:6d:c5:c0:69:24:41:8e:a1:ef:07:fc:4f:4a:0d:
                    73:72:96:27:c9:b7:a0:59:05:0a:6d:53:a9:dd:e5:
                    8d:07:15:a2:f8:30:b4:1e:1f:5c:3c:22:06:63:1a:
                    19:42:af:d8:3b:fe:69:f5:85:2d:6c:1b:48:6d:35:
                    42:70:fe:bb:65:ed:f2:8f:2e:49:55:58:cb:dc:01:
                    01:10:da:3c:f2:fd:60:06:a5:7d:81:08:16:d7:05:
                    61:1f:4d:2f:52:76:d7:b2:75:4f:4d:66:de:d6:77:
                    5b:ed
                Exponent: 65537 (0x10001)
        X509v3 extensions:
            X509v3 Key Usage: 
                Digital Signature, Key Encipherment
            X509v3 Basic Constraints: 
                CA:FALSE
            Netscape Cert Type: 
                SSL Server
            Netscape Comment: 
                OpenSSL Generated Server Certificate
            X509v3 Subject Key Identifier: 
                3C:87:14:C3:95:A3:86:75:3A:DD:99:86:9C:3E:DD:6E:4F:52:B8:3D
            X509v3 Authority Key Identifier: 
                keyid:F4:A7:C0:CC:91:46:AF:64:F3:91:F2:27:F8:C8:B2:6F:8A:87:32:73
                DirName:/C=DE/ST=Hessen/O=privacyidea/CN=CA001
                serial:FB:C8:EB:AC:83:CD:12:07

            X509v3 Extended Key Usage: 
                TLS Web Server Authentication
    Signature Algorithm: sha256WithRSAEncryption
         1c:02:5f:29:f8:81:e2:46:b9:1d:79:45:41:7b:e1:c9:eb:b7:
         29:9f:c9:c2:17:cc:2c:fa:21:f9:4e:83:3d:e2:a4:67:9c:f5:
         cd:e5:86:5b:fc:d7:47:db:28:81:cd:b1:45:02:96:d0:f9:45:
         17:30:66:ac:ae:e3:00:22:20:0f:45:62:cc:28:03:b7:d6:52:
         6c:7d:19:d9:dc:99:fb:2c:6f:87:02:a3:40:f9:18:7a:dc:45:
         24:7e:07:b2:ea:d4:77:7b:19:d5:98:34:36:1f:ef:9c:ee:f2:
         18:05:aa:f5:62:f2:a8:71:6e:f7:a5:57:03:22:c5:8b:58:bc:
         0d:1e:fc:ae:d9:83:4f:a0:ce:60:64:38:35:b6:cf:ea:a2:2e:
         0b:7d:eb:68:6b:da:32:03:74:cc:db:5c:89:27:11:d1:33:ca:
         4a:e4:d9:46:3b:07:4d:f2:da:92:60:b5:d9:e1:8f:e5:47:33:
         11:ee:92:5f:db:5e:38:a7:21:39:7b:92:d5:0b:aa:3e:65:f9:
         05:ba:66:86:f6:60:bc:8c:f1:d4:ba:d3:79:70:d3:42:61:07:
         06:3a:38:ee:9c:dd:55:62:1a:7a:09:57:d9:98:5a:dc:b9:a7:
         c4:2a:35:0b:59:c7:ce:90:1e:8f:3b:b2:cb:dd:88:81:4e:b2:
         6a:85:55:25
-----BEGIN CERTIFICATE-----
MIIEIjCCAwqgAwIBAgIEEAAA2DANBgkqhkiG9w0BAQsFADBEMQswCQYDVQQGEwJE
RTEPMA0GA1UECAwGSGVzc2VuMRQwEgYDVQQKDAtwcml2YWN5aWRlYTEOMAwGA1UE
AwwFQ0EwMDEwHhcNMjAwODA1MTQ1OTAzWhcNMjEwODA1MTQ1OTAzWjBQMQ8wDQYD
VQQLDAZyZWFsbTExEjAQBgNVBAMMCWNvcm5lbGl1czEpMCcGCSqGSIb3DQEJARYa
dXNlckBsb2NhbGhvc3QubG9jYWxkb21haW4wggEiMA0GCSqGSIb3DQEBAQUAA4IB
DwAwggEKAoIBAQC7tQyzHXodwWCEGLDmn5IECN1Jy4axkn9JSspCvMwd6DV9wN8J
6h+DokV/lXOe6LLg2TeYBUOwAueqNar+if1CQpoY05M5oVVvOx2KiDA+TFR1l2eg
m3v8UgjCR2XlEO5U1u0clK4AJPU6fRYfbWhT8cH60NH18C528+3SyJWBS0mTOkl0
5dJggPQh2ri/QQops8uPxCFtxcBpJEGOoe8H/E9KDXNylifJt6BZBQptU6nd5Y0H
FaL4MLQeH1w8IgZjGhlCr9g7/mn1hS1sG0htNUJw/rtl7fKPLklVWMvcAQEQ2jzy
/WAGpX2BCBbXBWEfTS9SdteydU9NZt7Wd1vtAgMBAAGjggEOMIIBCjALBgNVHQ8E
BAMCBaAwCQYDVR0TBAIwADARBglghkgBhvhCAQEEBAMCBkAwMwYJYIZIAYb4QgEN
BCYWJE9wZW5TU0wgR2VuZXJhdGVkIFNlcnZlciBDZXJ0aWZpY2F0ZTAdBgNVHQ4E
FgQUPIcUw5WjhnU63ZmGnD7dbk9SuD0wdAYDVR0jBG0wa4AU9KfAzJFGr2TzkfIn
+Miyb4qHMnOhSKRGMEQxCzAJBgNVBAYTAkRFMQ8wDQYDVQQIDAZIZXNzZW4xFDAS
BgNVBAoMC3ByaXZhY3lpZGVhMQ4wDAYDVQQDDAVDQTAwMYIJAPvI66yDzRIHMBMG
A1UdJQQMMAoGCCsGAQUFBwMBMA0GCSqGSIb3DQEBCwUAA4IBAQAcAl8p+IHiRrkd
eUVBe+HJ67cpn8nCF8ws+iH5ToM94qRnnPXN5YZb/NdH2yiBzbFFApbQ+UUXMGas
ruMAIiAPRWLMKAO31lJsfRnZ3Jn7LG+HAqNA+Rh63EUkfgey6tR3exnVmDQ2H++c
7vIYBar1YvKocW73pVcDIsWLWLwNHvyu2YNPoM5gZDg1ts/qoi4Lfetoa9oyA3TM
21yJJxHRM8pK5NlGOwdN8tqSYLXZ4Y/lRzMR7pJf2144pyE5e5LVC6o+ZfkFumaG
9mC8jPHUutN5cNNCYQcGOjjunN1VYhp6CVfZmFrcuafEKjULWcfOkB6PO7LL3YiB
TrJqhVUl
-----END CERTIFICATE-----
